target datalayout = "e-m:e-p270:32:32-p271:32:32-p272:64:64-i64:64-i128:128-f80:128-n8:16:32:64-S128"
target triple = "x86_64-unknown-linux-gnu"

%class.ThreadPool = type <{ ptr, %"class.std::mutex", %"class.std::condition_variable", %"class.std::vector", i8, [7 x i8] }>
%"class.std::mutex" = type { %"class.std::__mutex_base" }
%"class.std::__mutex_base" = type { %union.pthread_mutex_t }
%union.pthread_mutex_t = type { %struct.__pthread_mutex_s }
%struct.__pthread_mutex_s = type { i32, i32, i32, i32, i32, i16, i16, %struct.__pthread_internal_list }
%struct.__pthread_internal_list = type { ptr, ptr }
%"class.std::condition_variable" = type { %"class.std::__condvar" }
%"class.std::__condvar" = type { %union.pthread_cond_t }
%union.pthread_cond_t = type { %struct.__pthread_cond_s }
%struct.__pthread_cond_s = type { %union.__atomic_wide_counter, %union.__atomic_wide_counter, [2 x i32], [2 x i32], i32, i32, [2 x i32] }
%union.__atomic_wide_counter = type { i64 }
%"class.std::vector" = type { %"struct.std::_Vector_base" }
%"struct.std::_Vector_base" = type { %"struct.std::_Vector_base<std::thread, std::allocator<std::thread>>::_Vector_impl" }
%"struct.std::_Vector_base<std::thread, std::allocator<std::thread>>::_Vector_impl" = type { %"struct.std::_Vector_base<std::thread, std::allocator<std::thread>>::_Vector_impl_data" }
%"struct.std::_Vector_base<std::thread, std::allocator<std::thread>>::_Vector_impl_data" = type { ptr, ptr, ptr }
%"class.std::unique_lock" = type <{ ptr, i8, [7 x i8] }>
%class.ParallelJob = type <{ ptr, ptr, ptr, i32, i8, [3 x i8] }>

; Function Attrs: mustprogress nounwind uwtable
define internal noundef i32 @_ZL18__gthread_active_pv() #4 {
entry:
  ret i32 1
}

; Function Attrs: mustprogress uwtable
define internal noundef i32 @_ZL20__gthread_mutex_lockP15pthread_mutex_t(ptr noundef %__mutex) #6 {
entry:
  %retval = alloca i32, align 4
  %__mutex.addr = alloca ptr, align 8
  store ptr %__mutex, ptr %__mutex.addr, align 8
  %call = call noundef i32 @_ZL18__gthread_active_pv()
  %tobool = icmp ne i32 %call, 0
  br i1 %tobool, label %if.then, label %if.else

if.then:                                          ; preds = %entry
  %0 = load ptr, ptr %__mutex.addr, align 8
  %call1 = call i32 @pthread_mutex_lock(ptr noundef %0) #3
  store i32 %call1, ptr %retval, align 4
  br label %return

if.else:                                          ; preds = %entry
  store i32 0, ptr %retval, align 4
  br label %return

return:                                           ; preds = %if.else, %if.then
  %1 = load i32, ptr %retval, align 4
  ret i32 %1
}

; Function Attrs: mustprogress uwtable
define linkonce_odr dso_local void @_ZNSt5mutex4lockEv(ptr noundef nonnull align 8 dereferenceable(40) %this) #6 comdat align 2 {
entry:
  %this.addr = alloca ptr, align 8
  %__e = alloca i32, align 4
  store ptr %this, ptr %this.addr, align 8
  %this1 = load ptr, ptr %this.addr, align 8
  %_M_mutex = getelementptr inbounds %"class.std::__mutex_base", ptr %this1, i32 0, i32 0
  %call = call noundef i32 @_ZL20__gthread_mutex_lockP15pthread_mutex_t(ptr noundef %_M_mutex)
  store i32 %call, ptr %__e, align 4
  %0 = load i32, ptr %__e, align 4
  %tobool = icmp ne i32 %0, 0
  br i1 %tobool, label %if.then, label %if.end

if.then:                                          ; preds = %entry
  %1 = load i32, ptr %__e, align 4
  call void @_ZSt20__throw_system_errori(i32 noundef %1) #19
  unreachable

if.end:                                           ; preds = %entry
  ret void
}

; Function Attrs: mustprogress uwtable
define linkonce_odr dso_local noundef zeroext i1 @_ZNK11ParallelJob8FinishedEv(ptr noundef nonnull align 8 dereferenceable(29) %this) #6 comdat align 2 {
entry:
  %this.addr = alloca ptr, align 8
  store ptr %this, ptr %this.addr, align 8
  %this1 = load ptr, ptr %this.addr, align 8
  %vtable = load ptr, ptr %this1, align 8
  %vfn = getelementptr inbounds ptr, ptr %vtable, i64 3
  %0 = load ptr, ptr %vfn, align 8
  %call = call noundef zeroext i1 %0(ptr noundef nonnull align 8 dereferenceable(29) %this1)
  br i1 %call, label %land.end, label %land.rhs

land.rhs:                                         ; preds = %entry
  %activeWorkers = getelementptr inbounds %class.ParallelJob, ptr %this1, i32 0, i32 3
  %1 = load i32, ptr %activeWorkers, align 8
  %cmp = icmp eq i32 %1, 0
  br label %land.end

land.end:                                         ; preds = %land.rhs, %entry
  %2 = phi i1 [ false, %entry ], [ %cmp, %land.rhs ]
  ret i1 %2
}

; Function Attrs: mustprogress uwtable
define linkonce_odr dso_local void @_ZNSt11unique_lockISt5mutexE4lockEv(ptr noundef nonnull align 8 dereferenceable(9) %this) #6 comdat align 2 {
entry:
  %this.addr = alloca ptr, align 8
  store ptr %this, ptr %this.addr, align 8
  %this1 = load ptr, ptr %this.addr, align 8
  %_M_device = getelementptr inbounds %"class.std::unique_lock", ptr %this1, i32 0, i32 0
  %0 = load ptr, ptr %_M_device, align 8
  %tobool = icmp ne ptr %0, null
  br i1 %tobool, label %if.else, label %if.then

if.then:                                          ; preds = %entry
  call void @_ZSt20__throw_system_errori(i32 noundef 1) #19
  unreachable

if.else:                                          ; preds = %entry
  %_M_owns = getelementptr inbounds %"class.std::unique_lock", ptr %this1, i32 0, i32 1
  %1 = load i8, ptr %_M_owns, align 8
  %tobool2 = trunc i8 %1 to i1
  br i1 %tobool2, label %if.then3, label %if.else4

if.then3:                                         ; preds = %if.else
  call void @_ZSt20__throw_system_errori(i32 noundef 35) #19
  unreachable

if.else4:                                         ; preds = %if.else
  %_M_device5 = getelementptr inbounds %"class.std::unique_lock", ptr %this1, i32 0, i32 0
  %2 = load ptr, ptr %_M_device5, align 8
  call void @_ZNSt5mutex4lockEv(ptr noundef nonnull align 8 dereferenceable(40) %2)
  %_M_owns6 = getelementptr inbounds %"class.std::unique_lock", ptr %this1, i32 0, i32 1
  store i8 1, ptr %_M_owns6, align 8
  br label %if.end

if.end:                                           ; preds = %if.else4
  br label %if.end7

if.end7:                                          ; preds = %if.end
  ret void
}

; Function Attrs: mustprogress uwtable
define dso_local void @_ZN10ThreadPool10WorkOrWaitEPSt11unique_lockISt5mutexE(ptr noundef nonnull align 8 dereferenceable(121) %this, ptr noundef %lock) #6 align 2 {
entry:
  %this.addr = alloca ptr, align 8
  %lock.addr = alloca ptr, align 8
  %job = alloca ptr, align 8
  store ptr %this, ptr %this.addr, align 8
  store ptr %lock, ptr %lock.addr, align 8
  %this1 = load ptr, ptr %this.addr, align 8
  %jobList = getelementptr inbounds %class.ThreadPool, ptr %this1, i32 0, i32 0
  %0 = load ptr, ptr %jobList, align 8
  store ptr %0, ptr %job, align 8
  br label %while.cond

while.cond:                                       ; preds = %while.body, %entry
  %1 = load ptr, ptr %job, align 8
  %cmp = icmp ne ptr %1, null
  br i1 %cmp, label %land.rhs, label %land.end

land.rhs:                                         ; preds = %while.cond
  %2 = load ptr, ptr %job, align 8
  %vtable = load ptr, ptr %2, align 8
  %vfn = getelementptr inbounds ptr, ptr %vtable, i64 3
  %3 = load ptr, ptr %vfn, align 8
  %call = call noundef zeroext i1 %3(ptr noundef nonnull align 8 dereferenceable(29) %2)
  %lnot = xor i1 %call, true
  br label %land.end

land.end:                                         ; preds = %land.rhs, %while.cond
  %4 = phi i1 [ false, %while.cond ], [ %lnot, %land.rhs ]
  br i1 %4, label %while.body, label %while.end

while.body:                                       ; preds = %land.end
  %5 = load ptr, ptr %job, align 8
  %next = getelementptr inbounds %class.ParallelJob, ptr %5, i32 0, i32 2
  %6 = load ptr, ptr %next, align 8
  store ptr %6, ptr %job, align 8
  br label %while.cond, !llvm.loop !31

while.end:                                        ; preds = %land.end
  %7 = load ptr, ptr %job, align 8
  %cmp2 = icmp ne ptr %7, null
  br i1 %cmp2, label %if.then, label %if.else

if.then:                                          ; preds = %while.end
  %8 = load ptr, ptr %job, align 8
  %activeWorkers = getelementptr inbounds %class.ParallelJob, ptr %8, i32 0, i32 3
  %9 = load i32, ptr %activeWorkers, align 8
  %inc = add nsw i32 %9, 1
  store i32 %inc, ptr %activeWorkers, align 8
  %10 = load ptr, ptr %job, align 8
  %11 = load ptr, ptr %lock.addr, align 8
  %vtable3 = load ptr, ptr %10, align 8
  %vfn4 = getelementptr inbounds ptr, ptr %vtable3, i64 2
  %12 = load ptr, ptr %vfn4, align 8
  call void %12(ptr noundef nonnull align 8 dereferenceable(29) %10, ptr noundef %11)
  %13 = load ptr, ptr %lock.addr, align 8
  call void @_ZNSt11unique_lockISt5mutexE4lockEv(ptr noundef nonnull align 8 dereferenceable(9) %13)
  %14 = load ptr, ptr %job, align 8
  %activeWorkers5 = getelementptr inbounds %class.ParallelJob, ptr %14, i32 0, i32 3
  %15 = load i32, ptr %activeWorkers5, align 8
  %dec = add nsw i32 %15, -1
  store i32 %dec, ptr %activeWorkers5, align 8
  %16 = load ptr, ptr %job, align 8
  %call6 = call noundef zeroext i1 @_ZNK11ParallelJob8FinishedEv(ptr noundef nonnull align 8 dereferenceable(29) %16)
  br i1 %call6, label %if.then7, label %if.end

if.then7:                                         ; preds = %if.then
  %jobListCondition = getelementptr inbounds %class.ThreadPool, ptr %this1, i32 0, i32 2
  call void @_ZNSt18condition_variable10notify_allEv(ptr noundef nonnull align 8 dereferenceable(48) %jobListCondition) #3
  br label %if.end

if.end:                                           ; preds = %if.then7, %if.then
  br label %if.end9

if.else:                                          ; preds = %while.end
  %jobListCondition8 = getelementptr inbounds %class.ThreadPool, ptr %this1, i32 0, i32 2
  %17 = load ptr, ptr %lock.addr, align 8
  call void @_ZNSt18condition_variable4waitERSt11unique_lockISt5mutexE(ptr noundef nonnull align 8 dereferenceable(48) %jobListCondition8, ptr noundef nonnull align 8 dereferenceable(9) %17)
  br label %if.end9

if.end9:                                          ; preds = %if.else, %if.end
  ret void
}