; Function Attrs: mustprogress uwtable
define dso_local void @_ZN10ThreadPool10WorkOrWaitEPSt11unique_lockISt5mutexE(ptr noundef nonnull align 8 dereferenceable(121) %this, ptr noundef %lock) local_unnamed_addr #9 align 2 {
entry:
  %job.011 = load ptr, ptr %this, align 8
  %cmp.not12 = icmp eq ptr %job.011, null
  br i1 %cmp.not12, label %if.else, label %land.rhs

land.rhs:                                         ; preds = %entry, %while.body
  %job.013 = phi ptr [ %job.0, %while.body ], [ %job.011, %entry ]
  %vtable = load ptr, ptr %job.013, align 8
  %vfn = getelementptr inbounds i8, ptr %vtable, i64 24
  %0 = load ptr, ptr %vfn, align 8
  %call = tail call noundef zeroext i1 %0(ptr noundef nonnull align 8 dereferenceable(29) %job.013)
  br i1 %call, label %if.then, label %while.body

while.body:                                       ; preds = %land.rhs
  %next = getelementptr inbounds i8, ptr %job.013, i64 16
  %job.0 = load ptr, ptr %next, align 8
  %cmp.not = icmp eq ptr %job.0, null
  br i1 %cmp.not, label %if.else, label %land.rhs, !llvm.loop !38

if.then:                                          ; preds = %land.rhs
  %activeWorkers = getelementptr inbounds i8, ptr %job.013, i64 24
  %1 = load i32, ptr %activeWorkers, align 8
  %inc = add nsw i32 %1, 1
  store i32 %inc, ptr %activeWorkers, align 8
  %vtable3 = load ptr, ptr %job.013, align 8
  %vfn4 = getelementptr inbounds i8, ptr %vtable3, i64 16
  %2 = load ptr, ptr %vfn4, align 8
  tail call void %2(ptr noundef nonnull align 8 dereferenceable(29) %job.013, ptr noundef %lock)
  %3 = load ptr, ptr %lock, align 8
  %tobool.not.i = icmp eq ptr %3, null
  br i1 %tobool.not.i, label %if.then.i, label %if.else.i

if.then.i:                                        ; preds = %if.then
  tail call void @_ZSt20__throw_system_errori(i32 noundef 1) #32
  unreachable

if.else.i:                                        ; preds = %if.then
  %_M_owns.i = getelementptr inbounds i8, ptr %lock, i64 8
  %4 = load i8, ptr %_M_owns.i, align 8
  %5 = and i8 %4, 1
  %tobool2.not.i = icmp eq i8 %5, 0
  br i1 %tobool2.not.i, label %if.else4.i, label %if.then3.i

if.then3.i:                                       ; preds = %if.else.i
  tail call void @_ZSt20__throw_system_errori(i32 noundef 35) #32
  unreachable

if.else4.i:                                       ; preds = %if.else.i
  %call1.i.i.i = tail call noundef i32 @pthread_mutex_lock(ptr noundef nonnull %3) #31
  %tobool.not.i.i = icmp eq i32 %call1.i.i.i, 0
  br i1 %tobool.not.i.i, label %_ZNSt11unique_lockISt5mutexE4lockEv.exit, label %if.then.i.i

if.then.i.i:                                      ; preds = %if.else4.i
  tail call void @_ZSt20__throw_system_errori(i32 noundef %call1.i.i.i) #32
  unreachable

_ZNSt11unique_lockISt5mutexE4lockEv.exit:         ; preds = %if.else4.i
  store i8 1, ptr %_M_owns.i, align 8
  %6 = load i32, ptr %activeWorkers, align 8
  %dec = add nsw i32 %6, -1
  store i32 %dec, ptr %activeWorkers, align 8
  %vtable.i = load ptr, ptr %job.013, align 8
  %vfn.i = getelementptr inbounds i8, ptr %vtable.i, i64 24
  %7 = load ptr, ptr %vfn.i, align 8
  %call.i = tail call noundef zeroext i1 %7(ptr noundef nonnull align 8 dereferenceable(29) %job.013)
  %8 = load i32, ptr %activeWorkers, align 8
  %cmp.i = icmp ne i32 %8, 0
  %.not = select i1 %call.i, i1 true, i1 %cmp.i
  br i1 %.not, label %if.end9, label %if.then7

if.then7:                                         ; preds = %_ZNSt11unique_lockISt5mutexE4lockEv.exit
  %jobListCondition = getelementptr inbounds i8, ptr %this, i64 48
  tail call void @_ZNSt18condition_variable10notify_allEv(ptr noundef nonnull align 8 dereferenceable(48) %jobListCondition) #31
  br label %if.end9

if.else:                                          ; preds = %while.body, %entry
  %jobListCondition8 = getelementptr inbounds i8, ptr %this, i64 48
  tail call void @_ZNSt18condition_variable4waitERSt11unique_lockISt5mutexE(ptr noundef nonnull align 8 dereferenceable(48) %jobListCondition8, ptr noundef nonnull align 8 dereferenceable(9) %lock)
  br label %if.end9

if.end9:                                          ; preds = %_ZNSt11unique_lockISt5mutexE4lockEv.exit, %if.then7, %if.else
  ret void
}